; Function Attrs: mustprogress nounwind uwtable
define internal fastcc void @_ZSt11make_uniqueIN12_GLOBAL__N_114SimpleArgumentEJRKN4llvm6RecordERNS2_9StringRefERA5_KcEENSt8__detail9_MakeUniqIT_E15__single_objectEDpOT0_(ptr dead_on_unwind noalias nocapture writable writeonly align 8 %0, ptr noundef nonnull align 8 dereferenceable(192) %1, ptr %.0.val, i64 %.8.val) unnamed_addr #0 {
  %3 = alloca %"class.std::__cxx11::basic_string", align 8
  %4 = alloca %"class.std::allocator", align 1
  %5 = tail call noalias noundef nonnull dereferenceable(128) ptr @_Znwm(i64 noundef 128) #25
  call void @_ZNSaIcEC1Ev(ptr noundef nonnull align 1 dereferenceable(1) %4) #22
  %6 = call noundef ptr @_ZNSt7__cxx1112basic_stringIcSt11char_traitsIcESaIcEE13_M_local_dataEv(ptr noundef nonnull align 8 dereferenceable(32) %3) #22
  call void @_ZNSt7__cxx1112basic_stringIcSt11char_traitsIcESaIcEE12_Alloc_hiderC1EPcRKS3_(ptr noundef nonnull align 8 dereferenceable(8) %3, ptr noundef %6, ptr noundef nonnull align 1 dereferenceable(1) %4) #22
  call void @_ZNSt7__cxx1112basic_stringIcSt11char_traitsIcESaIcEE12_M_constructIPKcEEvT_S8_St20forward_iterator_tag(ptr noundef nonnull align 8 dereferenceable(32) %3, ptr noundef nonnull @.str.539, ptr noundef nonnull getelementptr inbounds (i8, ptr @.str.539, i64 4))
  %7 = call { ptr, i64 } @_ZNK4llvm6Record16getValueAsStringENS_9StringRefE(ptr noundef nonnull align 8 dereferenceable(192) %1, ptr nonnull @.str.59, i64 4) #22
  %8 = extractvalue { ptr, i64 } %7, 0
  %9 = extractvalue { ptr, i64 } %7, 1
  call fastcc void @_ZN12_GLOBAL__N_18ArgumentC2EN4llvm9StringRefES2_(ptr noundef nonnull align 8 dereferenceable(90) %5, ptr %8, i64 %9, ptr %.0.val, i64 %.8.val)
  store ptr getelementptr inbounds inrange(-16, 200) (i8, ptr @_ZTVN12_GLOBAL__N_114SimpleArgumentE, i64 16), ptr %5, align 8
  %10 = getelementptr inbounds nuw i8, ptr %5, i64 96
  call void @_ZNSt7__cxx1112basic_stringIcSt11char_traitsIcESaIcEEC1EOS4_(ptr noundef nonnull align 8 dereferenceable(32) %10, ptr noundef nonnull align 8 dereferenceable(32) %3) #22
  store ptr %5, ptr %0, align 8
  call void @_ZNSt7__cxx1112basic_stringIcSt11char_traitsIcESaIcEED1Ev(ptr noundef nonnull align 8 dereferenceable(32) %3) #22
  call void @_ZNSaIcED1Ev(ptr noundef nonnull align 1 dereferenceable(1) %4) #22
  ret void
}